; ModuleID = '16/1393.c'
source_filename = "16/1393.c"
target datalayout = "e-m:e-p270:32:32-p271:32:32-p272:64:64-i64:64-f80:128-n8:16:32:64-S128"
target triple = "x86_64-pc-linux-gnu"

@.str = private unnamed_addr constant [3 x i8] c"%d\00", align 1
@.str.1 = private unnamed_addr constant [2 x i8] c"0\00", align 1

; Function Attrs: noinline nounwind uwtable
define dso_local i32 @main(i32 %0, i8** %1) #0 {
  %3 = alloca i32, align 4
  %4 = alloca i32, align 4
  %5 = alloca i8**, align 8
  %6 = alloca i32, align 4
  %7 = alloca i32, align 4
  %8 = alloca i32, align 4
  store i32 0, i32* %3, align 4
  store i32 %0, i32* %4, align 4
  store i8** %1, i8*** %5, align 8
  %9 = call i32 (i8*, ...) @__isoc99_scanf(i8* getelementptr inbounds ([3 x i8], [3 x i8]* @.str, i64 0, i64 0), i32* %6)
  %10 = load i32, i32* %6, align 4
  store i32 %10, i32* %7, align 4
  br label %11

11:                                               ; preds = %14, %2
  %12 = load i32, i32* %7, align 4
  %13 = icmp sge i32 %12, 1
  br i1 %13, label %14, label %24

14:                                               ; preds = %11
  %15 = load i32, i32* %7, align 4
  %16 = load i32, i32* %7, align 4
  %17 = sdiv i32 %16, 10
  %18 = mul nsw i32 %17, 10
  %19 = sub nsw i32 %15, %18
  store i32 %19, i32* %8, align 4
  %20 = load i32, i32* %7, align 4
  %21 = sdiv i32 %20, 10
  store i32 %21, i32* %7, align 4
  %22 = load i32, i32* %8, align 4
  %23 = call i32 (i8*, ...) @printf(i8* getelementptr inbounds ([3 x i8], [3 x i8]* @.str, i64 0, i64 0), i32 %22)
  br label %11

24:                                               ; preds = %11
  %25 = load i32, i32* %6, align 4
  %26 = icmp eq i32 %25, 0
  br i1 %26, label %27, label %29

27:                                               ; preds = %24
  %28 = call i32 (i8*, ...) @printf(i8* getelementptr inbounds ([2 x i8], [2 x i8]* @.str.1, i64 0, i64 0))
  br label %29

29:                                               ; preds = %27, %24
  ret i32 0
}

declare dso_local i32 @__isoc99_scanf(i8*, ...) #1

declare dso_local i32 @printf(i8*, ...) #1


!llvm.module.flags = !{!0}
!llvm.ident = !{!1}

!0 = !{i32 1, !"wchar_size", i32 4}
!1 = !{!"clang version 10.0.0-4ubuntu1 "}
